Certificate:
    Data:
        Version: 3 (0x2)
        Serial Number: 14351489034874101987 (0xc72abb3d6195a0e3)
    Signature Algorithm: sha256WithRSAEncryption
        Issuer: C=KR, ST=Seoul, L=Seoul, O=Seoul National University, OU=Computer Science & Engineering, CN=MMLAB/emailAddress=hwlee2014@mmlab.snu.ac.kr
        Validity
            Not Before: Apr  5 00:39:07 2016 GMT
            Not After : Apr  5 00:39:07 2017 GMT
        Subject: C=KR, ST=Seoul, L=Seoul, O=SNU, OU=CSE, CN=MMLAB/emailAddress=hwlee2014@mmlab.snu.ac.kr
        Subject Public Key Info:
            Public Key Algorithm: rsaEncryption
                Public-Key: (1024 bit)
                Modulus:
                    00:f2:0d:1a:bc:71:45:bd:56:a9:36:db:e2:af:99:
                    71:12:ae:ab:b1:c9:75:e4:80:aa:6c:8b:61:5a:7b:
                    e7:d6:57:7a:3c:a1:94:10:6e:f6:a8:5b:06:a1:86:
                    9b:a8:c3:6d:98:08:20:98:b3:82:01:73:83:a8:1e:
                    73:dc:e8:37:d6:68:b7:fe:2b:94:c3:99:76:7d:ec:
                    87:37:f3:84:d2:f6:75:51:76:2f:aa:4b:50:a6:e5:
                    b0:18:ba:ff:a0:59:02:be:29:59:7d:fe:9d:5a:00:
                    96:a4:a5:c0:87:e9:91:84:be:eb:1c:06:56:5c:f7:
                    28:d2:ba:dc:14:95:8c:d2:03
                Exponent: 65537 (0x10001)
        X509v3 extensions:
            X509v3 Basic Constraints: 
                CA:FALSE
            Netscape Comment: 
                OpenSSL Generated Certificate
            X509v3 Subject Key Identifier: 
                0A:3A:68:49:1F:F9:D6:63:EC:0E:9D:39:CD:95:86:43:35:50:B4:DF
            X509v3 Authority Key Identifier: 
                keyid:1E:FE:36:8C:E5:0F:F5:20:EC:98:4D:66:0B:05:80:33:2C:A0:A5:86

    Signature Algorithm: sha256WithRSAEncryption
         76:c7:29:3d:4b:8a:e3:58:f0:87:3f:c6:b7:94:37:3d:8f:44:
         4e:e8:52:14:62:42:75:30:01:92:d7:49:16:c7:97:df:05:73:
         07:f2:e1:51:31:cc:f4:d1:74:41:1b:39:0b:9f:c9:1a:43:3e:
         4c:32:95:d3:13:36:6b:bf:af:78:c4:25:8f:9c:db:f1:33:19:
         5c:b6:1d:2f:9e:ba:c1:66:cc:3e:ed:6f:dd:d7:a9:5e:d7:6e:
         cf:6e:7b:73:1a:7f:91:54:c8:26:ad:0b:cf:6a:20:91:69:e6:
         93:0e:43:09:53:f1:2e:27:b4:d4:04:b4:ba:ec:a1:8c:e5:d4:
         34:60:9f:eb:05:22:2c:38:49:45:ff:cb:1b:08:8c:b3:bf:98:
         ad:49:3a:3c:08:ed:11:1e:53:e9:11:98:e9:01:b6:25:56:94:
         55:2d:99:75:de:7c:6a:f2:11:10:35:5a:ae:3f:10:1b:e4:81:
         98:dd:69:8d:00:26:e5:da:fc:fe:f3:1a:f5:9a:24:80:2a:62:
         ed:54:05:14:74:3f:14:41:23:6e:8f:79:9a:5e:4f:a9:e0:3f:
         a6:e3:47:1b:b5:24:c7:9d:18:da:0c:67:14:0f:3a:1a:c2:10:
         f1:14:3d:db:21:e8:d3:0b:13:28:f9:e4:66:ec:7e:9a:af:34:
         61:e7:27:d3
-----BEGIN CERTIFICATE-----
MIIDszCCApugAwIBAgIJAMcquz1hlaDjMA0GCSqGSIb3DQEBCwUAMIG0MQswCQYD
VQQGEwJLUjEOMAwGA1UECAwFU2VvdWwxDjAMBgNVBAcMBVNlb3VsMSIwIAYDVQQK
DBlTZW91bCBOYXRpb25hbCBVbml2ZXJzaXR5MScwJQYDVQQLDB5Db21wdXRlciBT
Y2llbmNlICYgRW5naW5lZXJpbmcxDjAMBgNVBAMMBU1NTEFCMSgwJgYJKoZIhvcN
AQkBFhlod2xlZTIwMTRAbW1sYWIuc251LmFjLmtyMB4XDTE2MDQwNTAwMzkwN1oX
DTE3MDQwNTAwMzkwN1owgYMxCzAJBgNVBAYTAktSMQ4wDAYDVQQIDAVTZW91bDEO
MAwGA1UEBwwFU2VvdWwxDDAKBgNVBAoMA1NOVTEMMAoGA1UECwwDQ1NFMQ4wDAYD
VQQDDAVNTUxBQjEoMCYGCSqGSIb3DQEJARYZaHdsZWUyMDE0QG1tbGFiLnNudS5h
Yy5rcjCBnzANBgkqhkiG9w0BAQEFAAOBjQAwgYkCgYEA8g0avHFFvVapNtvir5lx
Eq6rscl15ICqbIthWnvn1ld6PKGUEG72qFsGoYabqMNtmAggmLOCAXODqB5z3Og3
1mi3/iuUw5l2feyHN/OE0vZ1UXYvqktQpuWwGLr/oFkCvilZff6dWgCWpKXAh+mR
hL7rHAZWXPco0rrcFJWM0gMCAwEAAaN7MHkwCQYDVR0TBAIwADAsBglghkgBhvhC
AQ0EHxYdT3BlblNTTCBHZW5lcmF0ZWQgQ2VydGlmaWNhdGUwHQYDVR0OBBYEFAo6
aEkf+dZj7A6dOc2VhkM1ULTfMB8GA1UdIwQYMBaAFB7+NozlD/Ug7JhNZgsFgDMs
oKWGMA0GCSqGSIb3DQEBCwUAA4IBAQB2xyk9S4rjWPCHP8a3lDc9j0RO6FIUYkJ1
MAGS10kWx5ffBXMH8uFRMcz00XRBGzkLn8kaQz5MMpXTEzZrv694xCWPnNvxMxlc
th0vnrrBZsw+7W/d16le127PbntzGn+RVMgmrQvPaiCRaeaTDkMJU/EuJ7TUBLS6
7KGM5dQ0YJ/rBSIsOElF/8sbCIyzv5itSTo8CO0RHlPpEZjpAbYlVpRVLZl13nxq
8hEQNVquPxAb5IGY3WmNACbl2vz+8xr1miSAKmLtVAUUdD8UQSNuj3maXk+p4D+m
40cbtSTHnRjaDGcUDzoawhDxFD3bIejTCxMo+eRm7H6arzRh5yfT
-----END CERTIFICATE-----
