Certificate:
    Data:
        Version: 3 (0x2)
        Serial Number: 14351489034874101989 (0xc72abb3d6195a0e5)
    Signature Algorithm: sha256WithRSAEncryption
        Issuer: C=KR, ST=Seoul, L=Seoul, O=Seoul National University, OU=Computer Science & Engineering, CN=MMLAB/emailAddress=hwlee2014@mmlab.snu.ac.kr
        Validity
            Not Before: Apr 18 00:11:22 2016 GMT
            Not After : Apr 18 00:11:22 2017 GMT
        Subject: C=KR, ST=Seoul, L=Gwanak, O=Seoul National Univ., OU=SNUCSE, CN=MMLAB/emailAddress=mmlab@mmlab.snu.ac.kr
        Subject Public Key Info:
            Public Key Algorithm: rsaEncryption
                Public-Key: (2048 bit)
                Modulus:
                    00:b9:68:1f:74:70:82:7a:27:c0:d8:c7:9d:80:85:
                    57:0c:01:3e:a7:23:af:a1:f6:ed:70:99:a0:12:32:
                    cc:56:28:c4:1e:43:b1:d9:06:dc:11:4c:fa:b1:b8:
                    c8:51:04:35:ef:eb:df:c3:4e:b1:74:86:1c:ce:f5:
                    bc:30:a4:f7:50:eb:2e:e2:ba:97:b6:16:23:2f:62:
                    15:20:b9:d3:3a:ae:3a:75:a5:bb:78:5a:75:44:f5:
                    0e:42:99:bf:8b:c2:eb:35:cd:49:03:f5:2c:85:e0:
                    ad:94:76:97:93:a2:ff:e4:9c:4c:0e:80:c1:96:c6:
                    fe:97:d8:86:c5:da:30:07:3c:24:2c:f0:d7:28:42:
                    a4:3c:6a:fc:fa:47:2e:8e:50:09:ff:77:66:8b:c5:
                    0b:cd:86:05:31:2e:53:74:37:50:12:eb:d3:c2:20:
                    70:d1:0c:88:de:93:b1:fa:df:94:84:ed:20:80:5f:
                    6c:37:d4:10:89:aa:c4:fc:27:36:c6:ef:b3:59:74:
                    72:31:96:35:ac:45:68:bd:a7:af:b2:a3:dc:a1:10:
                    38:a7:20:34:76:43:92:71:99:13:b1:15:e7:b8:f2:
                    73:85:9d:a5:c9:f6:08:f4:6d:da:4b:4d:2c:d9:72:
                    36:d6:a2:e6:18:d6:5e:26:85:7c:f4:5d:58:a6:f1:
                    b7:5f
                Exponent: 65537 (0x10001)
        X509v3 extensions:
            X509v3 Basic Constraints: 
                CA:FALSE
            Netscape Comment: 
                OpenSSL Generated Certificate
            X509v3 Subject Key Identifier: 
                B0:C8:A9:BB:8B:BB:4F:E6:0B:1A:D1:1B:1B:EC:4D:30:D4:4B:C2:EB
            X509v3 Authority Key Identifier: 
                keyid:1E:FE:36:8C:E5:0F:F5:20:EC:98:4D:66:0B:05:80:33:2C:A0:A5:86

    Signature Algorithm: sha256WithRSAEncryption
         7c:33:94:33:74:c8:bf:07:a4:3e:64:39:3f:07:73:8b:55:2f:
         95:ae:ba:9b:b7:41:da:95:9d:05:fc:fa:01:4d:b0:1d:a8:af:
         85:a4:80:eb:67:26:dd:96:69:ea:0b:60:42:26:c3:04:02:c4:
         d8:8e:68:e7:8b:fb:fa:11:c1:42:ef:96:3f:22:2c:50:b6:36:
         78:9a:18:f7:65:ce:8f:78:d2:3f:c9:b5:11:82:74:2d:ed:e9:
         17:1d:38:7c:83:29:33:cb:80:a9:44:3d:17:dc:19:87:0c:73:
         51:0b:91:02:c1:86:68:d2:4e:9e:25:1e:9d:10:91:41:84:5e:
         6a:98:fe:b9:93:42:21:c4:07:21:fd:2b:11:1c:c5:a6:7a:d1:
         d8:54:94:69:04:90:1e:00:61:01:5e:fb:76:75:34:98:71:d2:
         cd:0d:5f:99:12:78:44:98:3e:0e:06:b2:8a:8f:89:84:e8:b7:
         b0:f5:a3:24:7b:5f:e5:d7:77:86:4b:3d:ac:50:de:58:ca:b8:
         76:f4:97:c5:a0:3f:58:7d:70:29:f6:7e:13:87:04:19:7d:0c:
         fe:3c:e7:c2:79:52:ee:a8:9b:25:ac:5d:28:f1:d3:de:cc:c9:
         9e:e9:0e:f5:6f:0f:58:d7:ef:3e:b4:13:12:20:80:df:ec:1d:
         4b:66:af:82
-----BEGIN CERTIFICATE-----
MIIESDCCAzCgAwIBAgIJAMcquz1hlaDlMA0GCSqGSIb3DQEBCwUAMIG0MQswCQYD
VQQGEwJLUjEOMAwGA1UECAwFU2VvdWwxDjAMBgNVBAcMBVNlb3VsMSIwIAYDVQQK
DBlTZW91bCBOYXRpb25hbCBVbml2ZXJzaXR5MScwJQYDVQQLDB5Db21wdXRlciBT
Y2llbmNlICYgRW5naW5lZXJpbmcxDjAMBgNVBAMMBU1NTEFCMSgwJgYJKoZIhvcN
AQkBFhlod2xlZTIwMTRAbW1sYWIuc251LmFjLmtyMB4XDTE2MDQxODAwMTEyMloX
DTE3MDQxODAwMTEyMlowgZQxCzAJBgNVBAYTAktSMQ4wDAYDVQQIDAVTZW91bDEP
MA0GA1UEBwwGR3dhbmFrMR0wGwYDVQQKDBRTZW91bCBOYXRpb25hbCBVbml2LjEP
MA0GA1UECwwGU05VQ1NFMQ4wDAYDVQQDDAVNTUxBQjEkMCIGCSqGSIb3DQEJARYV
bW1sYWJAbW1sYWIuc251LmFjLmtyMIIBIjANBgkqhkiG9w0BAQEFAAOCAQ8AMIIB
CgKCAQEAuWgfdHCCeifA2MedgIVXDAE+pyOvofbtcJmgEjLMVijEHkOx2QbcEUz6
sbjIUQQ17+vfw06xdIYczvW8MKT3UOsu4rqXthYjL2IVILnTOq46daW7eFp1RPUO
Qpm/i8LrNc1JA/UsheCtlHaXk6L/5JxMDoDBlsb+l9iGxdowBzwkLPDXKEKkPGr8
+kcujlAJ/3dmi8ULzYYFMS5TdDdQEuvTwiBw0QyI3pOx+t+UhO0ggF9sN9QQiarE
/Cc2xu+zWXRyMZY1rEVovaevsqPcoRA4pyA0dkOScZkTsRXnuPJzhZ2lyfYI9G3a
S00s2XI21qLmGNZeJoV89F1YpvG3XwIDAQABo3sweTAJBgNVHRMEAjAAMCwGCWCG
SAGG+EIBDQQfFh1PcGVuU1NMIEdlbmVyYXRlZCBDZXJ0aWZpY2F0ZTAdBgNVHQ4E
FgQUsMipu4u7T+YLGtEbG+xNMNRLwuswHwYDVR0jBBgwFoAUHv42jOUP9SDsmE1m
CwWAMyygpYYwDQYJKoZIhvcNAQELBQADggEBAHwzlDN0yL8HpD5kOT8Hc4tVL5Wu
upu3QdqVnQX8+gFNsB2or4WkgOtnJt2WaeoLYEImwwQCxNiOaOeL+/oRwULvlj8i
LFC2NniaGPdlzo940j/JtRGCdC3t6RcdOHyDKTPLgKlEPRfcGYcMc1ELkQLBhmjS
Tp4lHp0QkUGEXmqY/rmTQiHEByH9KxEcxaZ60dhUlGkEkB4AYQFe+3Z1NJhx0s0N
X5kSeESYPg4GsoqPiYTot7D1oyR7X+XXd4ZLPaxQ3ljKuHb0l8WgP1h9cCn2fhOH
BBl9DP4858J5Uu6omyWsXSjx097MyZ7pDvVvD1jX7z60ExIggN/sHUtmr4I=
-----END CERTIFICATE-----
