Certificate:
    Data:
        Version: 3 (0x2)
        Serial Number: 14351489034874101990 (0xc72abb3d6195a0e6)
    Signature Algorithm: sha256WithRSAEncryption
        Issuer: C=KR, ST=Seoul, L=Seoul, O=Seoul National University, OU=Computer Science & Engineering, CN=MMLAB/emailAddress=hwlee2014@mmlab.snu.ac.kr
        Validity
            Not Before: Apr 18 00:14:23 2016 GMT
            Not After : Apr 18 00:14:23 2017 GMT
        Subject: C=KR, ST=Pusan, L=Youngdo, O=SNU, OU=SNUCSE, CN=mmlab2/emailAddress=mmlab2@mmlab.snu.ac.kr
        Subject Public Key Info:
            Public Key Algorithm: rsaEncryption
                Public-Key: (1024 bit)
                Modulus:
                    00:af:e7:a9:01:bb:50:37:a7:6f:ce:44:44:3e:ed:
                    b4:6a:9c:02:00:f6:93:bc:4a:d5:81:a3:a7:d2:7f:
                    53:2f:32:28:83:40:df:55:9e:d9:cc:5e:f5:ce:ba:
                    8b:bf:4a:92:2c:2c:e6:2f:be:31:fa:d8:c8:fb:cc:
                    99:df:2e:70:87:21:d2:c1:16:7d:07:67:79:ad:8b:
                    b6:8e:1b:78:35:6c:8c:39:40:4f:5b:2f:81:af:dd:
                    51:d0:b4:24:c1:eb:44:68:43:42:56:ad:e2:e3:f4:
                    cf:81:69:84:3e:b5:a9:cb:2f:53:78:5f:c3:ff:fe:
                    68:ab:5a:61:33:d2:5e:fa:b1
                Exponent: 65537 (0x10001)
        X509v3 extensions:
            X509v3 Basic Constraints: 
                CA:FALSE
            Netscape Comment: 
                OpenSSL Generated Certificate
            X509v3 Subject Key Identifier: 
                34:16:18:7E:18:D4:CF:D0:34:AD:6F:28:6B:7A:72:E6:59:12:92:15
            X509v3 Authority Key Identifier: 
                keyid:1E:FE:36:8C:E5:0F:F5:20:EC:98:4D:66:0B:05:80:33:2C:A0:A5:86

    Signature Algorithm: sha256WithRSAEncryption
         1b:dd:0a:3e:30:1c:32:c5:e9:e4:9e:37:df:ae:06:6e:64:67:
         13:39:ba:e9:48:2f:1f:f1:9a:0e:2b:98:79:d2:36:32:ad:ac:
         f5:68:35:3c:7e:8a:08:fb:85:6d:a4:ff:8d:f5:8a:a3:ae:e4:
         42:e8:27:cd:b4:80:82:60:f4:97:57:07:ab:c1:19:6b:f4:58:
         ee:13:fb:2b:a3:e6:fd:45:67:d5:0a:f1:74:c5:f4:95:d5:c4:
         ce:2b:2e:3d:ac:e8:3e:d4:75:39:a7:8e:9a:ad:e2:68:02:6a:
         22:6e:ad:12:28:1b:9b:0a:5b:d3:27:6f:07:36:29:ef:2e:17:
         d7:95:73:c9:f1:39:b3:df:96:85:f4:c9:ae:20:b6:86:23:30:
         4d:8a:d8:d0:79:ef:6b:ea:ba:56:d0:11:3e:33:dc:2c:ab:f0:
         74:d3:64:0b:0e:a0:75:0c:be:b5:e5:fd:ae:aa:a9:ad:03:4d:
         2c:3b:c4:30:74:e4:97:9b:77:c1:42:b1:fd:88:4d:39:a8:e4:
         53:c6:7b:90:68:59:e8:c1:06:0a:aa:c2:3f:64:10:9c:d3:d4:
         0e:12:0b:19:23:6b:db:c4:e8:7e:a9:82:fc:41:d0:37:e6:4b:
         88:27:81:26:32:45:4e:17:f6:85:b7:58:83:27:52:d6:75:1a:
         a4:3a:3f:44
-----BEGIN CERTIFICATE-----
MIIDtjCCAp6gAwIBAgIJAMcquz1hlaDmMA0GCSqGSIb3DQEBCwUAMIG0MQswCQYD
VQQGEwJLUjEOMAwGA1UECAwFU2VvdWwxDjAMBgNVBAcMBVNlb3VsMSIwIAYDVQQK
DBlTZW91bCBOYXRpb25hbCBVbml2ZXJzaXR5MScwJQYDVQQLDB5Db21wdXRlciBT
Y2llbmNlICYgRW5naW5lZXJpbmcxDjAMBgNVBAMMBU1NTEFCMSgwJgYJKoZIhvcN
AQkBFhlod2xlZTIwMTRAbW1sYWIuc251LmFjLmtyMB4XDTE2MDQxODAwMTQyM1oX
DTE3MDQxODAwMTQyM1owgYYxCzAJBgNVBAYTAktSMQ4wDAYDVQQIDAVQdXNhbjEQ
MA4GA1UEBwwHWW91bmdkbzEMMAoGA1UECgwDU05VMQ8wDQYDVQQLDAZTTlVDU0Ux
DzANBgNVBAMMBm1tbGFiMjElMCMGCSqGSIb3DQEJARYWbW1sYWIyQG1tbGFiLnNu
dS5hYy5rcjCBnzANBgkqhkiG9w0BAQEFAAOBjQAwgYkCgYEAr+epAbtQN6dvzkRE
Pu20apwCAPaTvErVgaOn0n9TLzIog0DfVZ7ZzF71zrqLv0qSLCzmL74x+tjI+8yZ
3y5whyHSwRZ9B2d5rYu2jht4NWyMOUBPWy+Br91R0LQkwetEaENCVq3i4/TPgWmE
PrWpyy9TeF/D//5oq1phM9Je+rECAwEAAaN7MHkwCQYDVR0TBAIwADAsBglghkgB
hvhCAQ0EHxYdT3BlblNTTCBHZW5lcmF0ZWQgQ2VydGlmaWNhdGUwHQYDVR0OBBYE
FDQWGH4Y1M/QNK1vKGt6cuZZEpIVMB8GA1UdIwQYMBaAFB7+NozlD/Ug7JhNZgsF
gDMsoKWGMA0GCSqGSIb3DQEBCwUAA4IBAQAb3Qo+MBwyxenknjffrgZuZGcTObrp
SC8f8ZoOK5h50jYyraz1aDU8fooI+4VtpP+N9YqjruRC6CfNtICCYPSXVwerwRlr
9FjuE/sro+b9RWfVCvF0xfSV1cTOKy49rOg+1HU5p46areJoAmoibq0SKBubClvT
J28HNinvLhfXlXPJ8Tmz35aF9MmuILaGIzBNitjQee9r6rpW0BE+M9wsq/B002QL
DqB1DL615f2uqqmtA00sO8QwdOSXm3fBQrH9iE05qORTxnuQaFnowQYKqsI/ZBCc
09QOEgsZI2vbxOh+qYL8QdA35kuIJ4EmMkVOF/aFt1iDJ1LWdRqkOj9E
-----END CERTIFICATE-----
